(lp1
(lp2
F45.557986853999999
aF18.713400670999999
aa(lp3
F45.557994366000003
aF18.710986682000001
aa(lp4
F45.558283584000002
aF18.710772106
aa(lp5
F45.557962439000001
aF18.708891876999999
aa(lp6
F45.557862901999997
aF18.708492228000001
aa(lp7
F45.557782146000001
aF18.708792634999998
aa(lp8
F45.557273191
aF18.710745284000001
aa(lp9
F45.556980211000003
aF18.712043473000001
aa(lp10
F45.556108774000002
aF18.715680548000002
aa(lp11
F45.557231872999999
aF18.715720781000002
aa(lp12
F45.557983098000001
aF18.715793201
aa(lp13
F45.558786896000001
aF18.715862938000001
aa(lp14
F45.559624487999997
aF18.715954134
aa(lp15
F45.560105252
aF18.715321132
aa(lp16
F45.559819799000003
aF18.715133378000001
aa(lp17
F45.560383192000003
aF18.715927311000002
aa(lp18
F45.560916532
aF18.717901417
aa(lp19
F45.560555964999999
aF18.719006487000001
aa(lp20
F45.560345632000001
aF18.718883106
aa(lp21
F45.560330608999998
aF18.718453952000001
aa(lp22
F45.559808531000002
aF18.718207189000001
aa(lp23
F45.559870504000003
aF18.718893834999999
aa(lp24
F45.558863895000002
aF18.719151326999999
aa(lp25
F45.558800042999998
aF18.717922874999999
aa(lp26
F45.558766237999997
aF18.716941186
aa(lp27
F45.557748341
aF18.717912146
aa(lp28
F45.557973707000002
aF18.718593426999998
aa(lp29
F45.557256287999998
aF18.716871448999999
aa(lp30
F45.557320142999998
aF18.719381996999999
aa(lp31
F45.556313488000001
aF18.719682404
aa(lp32
F45.555002555999998
aF18.720256397
aa(lp33
F45.555922840999997
aF18.716731974000002
aa(lp34
F45.556099383999999
aF18.716839263000001
aa(lp35
F45.557962439000001
aF18.717981213000002
aa(lp36
F45.558120195000001
aF18.707424037999999
aa.