(lp1
(lp2
I0
aI188
aI227
aI377
aI412
aI399
aI271
aI377
aI395
aI270
aI186
aI276
aI373
aI459
aI500
aI463
aI630
aI616
aI591
aI558
aI496
aI649
aI534
aI437
aI361
aI554
aI579
aI359
aI556
aI669
aI777
aI479
aI488
aI530
aI500
aa(lp3
I188
aI0
aI39
aI189
aI224
aI211
aI83
aI189
aI489
aI614
aI698
aI788
aI885
aI971
aI969
aI975
aI1142
aI1128
aI1103
aI1070
aI1008
aI1161
aI1046
aI949
aI873
aI1066
aI1091
aI703
aI900
aI829
aI871
aI573
aI594
aI1042
aI312
aa(lp4
I227
aI39
aI0
aI151
aI185
aI173
aI121
aI227
aI527
aI652
aI736
aI826
aI923
aI1009
aI930
aI1013
aI1180
aI1166
aI1141
aI1108
aI1046
aI1199
aI1084
aI987
aI911
aI1104
aI1129
aI741
aI938
aI867
aI909
aI611
aI632
aI1080
aI273
aa(lp5
I377
aI189
aI151
aI0
aI34
aI22
aI183
aI290
aI590
aI715
aI799
aI889
aI986
aI1072
aI779
aI1076
aI1243
aI1229
aI1204
aI1171
aI1109
aI1262
aI1147
aI1050
aI974
aI1167
aI1192
aI804
aI1001
aI930
aI972
aI674
aI695
aI1143
aI122
aa(lp6
I412
aI224
aI185
aI34
aI0
aI27
aI188
aI295
aI594
aI719
aI803
aI893
aI990
aI1076
aI745
aI1080
aI1247
aI1233
aI1208
aI1175
aI1113
aI1266
aI1151
aI1054
aI978
aI1171
aI1196
aI808
aI1005
aI934
aI976
aI678
aI699
aI1147
aI88
aa(lp7
I399
aI211
aI173
aI22
aI27
aI0
aI161
aI268
aI568
aI693
aI777
aI867
aI964
aI1050
aI771
aI1054
aI1221
aI1207
aI1182
aI1149
aI1087
aI1240
aI1125
aI1028
aI952
aI1145
aI1170
aI782
aI979
aI908
aI950
aI652
aI673
aI1121
aI114
aa(lp8
I271
aI83
aI121
aI183
aI188
aI161
aI0
aI106
aI406
aI531
aI615
aI705
aI802
aI888
aI933
aI892
aI1059
aI1045
aI1020
aI987
aI925
aI1078
aI963
aI866
aI790
aI983
aI1008
aI620
aI817
aI746
aI788
aI490
aI511
aI959
aI276
aa(lp9
I377
aI189
aI227
aI290
aI295
aI268
aI106
aI0
aI300
aI425
aI509
aI599
aI696
aI782
aI823
aI786
aI953
aI939
aI914
aI881
aI819
aI972
aI857
aI760
aI684
aI877
aI902
aI514
aI711
aI640
aI682
aI384
aI405
aI853
aI382
aa(lp10
I395
aI489
aI527
aI590
aI594
aI568
aI406
aI300
aI0
aI125
aI209
aI299
aI396
aI482
aI523
aI486
aI653
aI639
aI614
aI581
aI519
aI672
aI557
aI460
aI384
aI577
aI602
aI214
aI411
aI340
aI382
aI84
aI105
aI553
aI682
aa(lp11
I270
aI614
aI652
aI715
aI719
aI693
aI531
aI425
aI125
aI0
aI84
aI174
aI271
aI357
aI398
aI361
aI528
aI514
aI489
aI456
aI394
aI547
aI432
aI335
aI257
aI452
aI477
aI89
aI286
aI399
aI507
aI209
aI218
aI428
aI807
aa(lp12
I186
aI698
aI736
aI799
aI803
aI777
aI615
aI509
aI209
aI84
aI0
aI90
aI187
aI273
aI314
aI277
aI444
aI430
aI405
aI372
aI310
aI463
aI348
aI251
aI175
aI368
aI393
aI173
aI370
aI483
aI591
aI293
aI302
aI344
aI891
aa(lp13
I276
aI788
aI826
aI889
aI893
aI867
aI705
aI599
aI299
aI174
aI90
aI0
aI97
aI183
aI224
aI187
aI354
aI339
aI314
aI281
aI219
aI372
aI257
aI160
aI84
aI277
aI302
aI252
aI431
aI544
aI681
aI383
aI381
aI253
aI981
aa(lp14
I373
aI885
aI923
aI986
aI990
aI964
aI802
aI696
aI396
aI271
aI187
aI97
aI0
aI86
aI127
aI90
aI257
aI283
aI258
aI226
aI294
aI311
aI346
aI249
aI173
aI366
aI391
aI341
aI520
aI633
aI778
aI480
aI470
aI342
aI1078
aa(lp15
I459
aI971
aI1009
aI1072
aI1076
aI1050
aI888
aI782
aI482
aI357
aI273
aI183
aI86
aI0
aI41
aI146
aI313
aI339
aI314
aI281
aI343
aI367
aI431
aI334
aI258
aI451
aI476
aI426
aI605
aI718
aI863
aI565
aI555
aI427
aI1163
aa(lp16
I500
aI969
aI930
aI779
aI745
aI771
aI933
aI823
aI523
aI398
aI314
aI224
aI127
aI41
aI0
aI187
aI354
aI380
aI355
aI322
aI384
aI408
aI472
aI375
aI299
aI492
aI517
aI467
aI646
aI759
aI904
aI606
aI596
aI468
aI657
aa(lp17
I463
aI975
aI1013
aI1076
aI1080
aI1054
aI892
aI786
aI486
aI361
aI277
aI187
aI90
aI146
aI187
aI0
aI166
aI266
aI308
aI276
aI338
aI361
aI436
aI339
aI263
aI456
aI481
aI431
aI650
aI762
aI868
aI570
aI560
aI432
aI1168
aa(lp18
I630
aI1142
aI1180
aI1243
aI1247
aI1221
aI1059
aI953
aI653
aI528
aI444
aI354
aI257
aI313
aI354
aI166
aI0
aI100
aI121
aI154
aI216
aI174
aI288
aI385
aI430
aI502
aI527
aI598
aI463
aI575
aI727
aI737
aI727
aI478
aI1335
aa(lp19
I616
aI1128
aI1166
aI1229
aI1233
aI1207
aI1045
aI939
aI639
aI514
aI430
aI339
aI283
aI339
aI380
aI266
aI100
aI0
aI25
aI58
aI120
aI78
aI192
aI289
aI365
aI406
aI431
aI533
aI367
aI479
aI631
aI683
aI662
aI382
aI1321
aa(lp20
I591
aI1103
aI1141
aI1204
aI1208
aI1182
aI1020
aI914
aI614
aI489
aI405
aI314
aI258
aI314
aI355
aI308
aI121
aI25
aI0
aI33
aI95
aI53
aI167
aI264
aI340
aI381
aI406
aI508
aI342
aI454
aI606
aI658
aI637
aI357
aI1296
aa(lp21
I558
aI1070
aI1108
aI1171
aI1175
aI1149
aI987
aI881
aI581
aI456
aI372
aI281
aI226
aI281
aI322
aI276
aI154
aI58
aI33
aI0
aI62
aI86
aI200
aI297
aI347
aI414
aI439
aI515
aI375
aI487
aI639
aI665
aI644
aI390
aI1263
aa(lp22
I496
aI1008
aI1046
aI1109
aI1113
aI1087
aI925
aI819
aI519
aI394
aI310
aI219
aI294
aI343
aI384
aI338
aI216
aI120
aI95
aI62
aI0
aI148
aI262
aI361
aI285
aI478
aI503
aI453
aI437
aI549
aI701
aI603
aI582
aI454
aI1201
aa(lp23
I649
aI1161
aI1199
aI1262
aI1266
aI1240
aI1078
aI972
aI672
aI547
aI463
aI372
aI311
aI367
aI408
aI361
aI174
aI78
aI53
aI86
aI148
aI0
aI115
aI212
aI288
aI329
aI354
aI456
aI289
aI401
aI553
aI606
aI585
aI305
aI1354
aa(lp24
I534
aI1046
aI1084
aI1147
aI1151
aI1125
aI963
aI857
aI557
aI432
aI348
aI257
aI346
aI431
aI472
aI436
aI288
aI192
aI167
aI200
aI262
aI115
aI0
aI97
aI173
aI214
aI239
aI341
aI174
aI287
aI439
aI491
aI470
aI190
aI1239
aa(lp25
I437
aI949
aI987
aI1050
aI1054
aI1028
aI866
aI760
aI460
aI335
aI251
aI160
aI249
aI334
aI375
aI339
aI385
aI289
aI264
aI297
aI361
aI212
aI97
aI0
aI76
aI117
aI142
aI244
aI271
aI384
aI536
aI394
aI373
aI93
aI1142
aa(lp26
I361
aI873
aI911
aI974
aI978
aI952
aI790
aI684
aI384
aI257
aI175
aI84
aI173
aI258
aI299
aI263
aI430
aI365
aI340
aI347
aI285
aI288
aI173
aI76
aI0
aI193
aI218
aI168
aI347
aI460
aI616
aI318
aI297
aI169
aI1066
aa(lp27
I554
aI1066
aI1104
aI1167
aI1171
aI1145
aI983
aI877
aI577
aI452
aI368
aI277
aI366
aI451
aI492
aI456
aI502
aI406
aI381
aI414
aI478
aI329
aI214
aI117
aI193
aI0
aI73
aI361
aI388
aI501
aI653
aI511
aI490
aI24
aI1259
aa(lp28
I579
aI1091
aI1129
aI1192
aI1196
aI1170
aI1008
aI902
aI602
aI477
aI393
aI302
aI391
aI476
aI517
aI481
aI527
aI431
aI406
aI439
aI503
aI354
aI239
aI142
aI218
aI73
aI0
aI386
aI413
aI526
aI678
aI536
aI515
aI49
aI1284
aa(lp29
I359
aI703
aI741
aI804
aI808
aI782
aI620
aI514
aI214
aI89
aI173
aI252
aI341
aI426
aI467
aI431
aI598
aI533
aI508
aI515
aI453
aI456
aI341
aI244
aI168
aI361
aI386
aI0
aI197
aI310
aI448
aI150
aI129
aI337
aI896
aa(lp30
I556
aI900
aI938
aI1001
aI1005
aI979
aI817
aI711
aI411
aI286
aI370
aI431
aI520
aI605
aI646
aI650
aI463
aI367
aI342
aI375
aI437
aI289
aI174
aI271
aI347
aI388
aI413
aI197
aI0
aI113
aI265
aI347
aI326
aI364
aI1093
aa(lp31
I669
aI829
aI867
aI930
aI934
aI908
aI746
aI640
aI340
aI399
aI483
aI544
aI633
aI718
aI759
aI762
aI575
aI479
aI454
aI487
aI549
aI401
aI287
aI384
aI460
aI501
aI526
aI310
aI113
aI0
aI152
aI256
aI235
aI477
aI1022
aa(lp32
I777
aI871
aI909
aI972
aI976
aI950
aI788
aI682
aI382
aI507
aI591
aI681
aI778
aI863
aI904
aI868
aI727
aI631
aI606
aI639
aI701
aI553
aI439
aI536
aI616
aI653
aI678
aI448
aI265
aI152
aI0
aI298
aI319
aI629
aI1064
aa(lp33
I479
aI573
aI611
aI674
aI678
aI652
aI490
aI384
aI84
aI209
aI293
aI383
aI480
aI565
aI606
aI570
aI737
aI683
aI658
aI665
aI603
aI606
aI491
aI394
aI318
aI511
aI536
aI150
aI347
aI256
aI298
aI0
aI21
aI487
aI766
aa(lp34
I488
aI594
aI632
aI695
aI699
aI673
aI511
aI405
aI105
aI218
aI302
aI381
aI470
aI555
aI596
aI560
aI727
aI662
aI637
aI644
aI582
aI585
aI470
aI373
aI297
aI490
aI515
aI129
aI326
aI235
aI319
aI21
aI0
aI466
aI787
aa(lp35
I530
aI1042
aI1080
aI1143
aI1147
aI1121
aI959
aI853
aI553
aI428
aI344
aI253
aI342
aI427
aI468
aI432
aI478
aI382
aI357
aI390
aI454
aI305
aI190
aI93
aI169
aI24
aI49
aI337
aI364
aI477
aI629
aI487
aI466
aI0
aI1235
aa(lp36
I500
aI312
aI273
aI122
aI88
aI114
aI276
aI382
aI682
aI807
aI891
aI981
aI1078
aI1163
aI657
aI1168
aI1335
aI1321
aI1296
aI1263
aI1201
aI1354
aI1239
aI1142
aI1066
aI1259
aI1284
aI896
aI1093
aI1022
aI1064
aI766
aI787
aI1235
aI0
aa.